; Function Attrs: mustprogress uwtable
define void @_ZNK8QuantLib8FdmCEVOp14toMatrixDecompEv(ptr dead_on_unwind noalias writable sret(%"class.std::vector.34") align 8 %agg.result, ptr noundef nonnull align 8 dereferenceable(184) %this) unnamed_addr #6 align 2 personality ptr @__gxx_personality_v0 {
entry:
  %ref.tmp = alloca %"class.boost::numeric::ublas::compressed_matrix", align 8
  %ref.tmp2 = alloca %"class.std::allocator.36", align 1
  call void @llvm.lifetime.start.p0(i64 112, ptr nonnull %ref.tmp) #20
  %mapT_ = getelementptr inbounds nuw i8, ptr %this, i64 104
  call void @_ZNK8QuantLib18TripleBandLinearOp8toMatrixEv(ptr dead_on_unwind nonnull writable sret(%"class.boost::numeric::ublas::compressed_matrix") align 8 %ref.tmp, ptr noundef nonnull align 8 dereferenceable(80) %mapT_)
  call void @llvm.lifetime.start.p0(i64 1, ptr nonnull %ref.tmp2) #20
  invoke void @_ZNSt6vectorIN5boost7numeric5ublas17compressed_matrixIdNS2_15basic_row_majorImlEELm0ENS2_15unbounded_arrayImSaImEEENS6_IdSaIdEEEEESaISB_EEC2EmRKSB_RKSC_(ptr noundef nonnull align 8 dereferenceable(24) %agg.result, i64 noundef 1, ptr noundef nonnull align 8 dereferenceable(112) %ref.tmp, ptr noundef nonnull align 1 dereferenceable(1) %ref.tmp2)
          to label %invoke.cont unwind label %lpad

invoke.cont:                                      ; preds = %entry
  call void @llvm.lifetime.end.p0(i64 1, ptr nonnull %ref.tmp2) #20
  %size_.i.i = getelementptr inbounds nuw i8, ptr %ref.tmp, i64 96
  %0 = load i64, ptr %size_.i.i, align 8, !tbaa !59
  %tobool.not.i.i = icmp eq i64 %0, 0
  br i1 %tobool.not.i.i, label %_ZN5boost7numeric5ublas15unbounded_arrayIdSaIdEED2Ev.exit.i, label %if.then.i.i

if.then.i.i:                                      ; preds = %invoke.cont
  %data_.i.i = getelementptr inbounds nuw i8, ptr %ref.tmp, i64 104
  %1 = load ptr, ptr %data_.i.i, align 8, !tbaa !62
  %mul.i.i.i = shl i64 %0, 3
  call void @_ZdlPvm(ptr noundef %1, i64 noundef %mul.i.i.i) #22
  br label %_ZN5boost7numeric5ublas15unbounded_arrayIdSaIdEED2Ev.exit.i

_ZN5boost7numeric5ublas15unbounded_arrayIdSaIdEED2Ev.exit.i: ; preds = %if.then.i.i, %invoke.cont
  %size_.i1.i = getelementptr inbounds nuw i8, ptr %ref.tmp, i64 72
  %2 = load i64, ptr %size_.i1.i, align 8, !tbaa !63
  %tobool.not.i2.i = icmp eq i64 %2, 0
  br i1 %tobool.not.i2.i, label %_ZN5boost7numeric5ublas15unbounded_arrayImSaImEED2Ev.exit.i, label %if.then.i3.i

if.then.i3.i:                                     ; preds = %_ZN5boost7numeric5ublas15unbounded_arrayIdSaIdEED2Ev.exit.i
  %data_.i4.i = getelementptr inbounds nuw i8, ptr %ref.tmp, i64 80
  %3 = load ptr, ptr %data_.i4.i, align 8, !tbaa !66
  %mul.i.i5.i = shl i64 %2, 3
  call void @_ZdlPvm(ptr noundef %3, i64 noundef %mul.i.i5.i) #22
  br label %_ZN5boost7numeric5ublas15unbounded_arrayImSaImEED2Ev.exit.i

_ZN5boost7numeric5ublas15unbounded_arrayImSaImEED2Ev.exit.i: ; preds = %if.then.i3.i, %_ZN5boost7numeric5ublas15unbounded_arrayIdSaIdEED2Ev.exit.i
  %size_.i6.i = getelementptr inbounds nuw i8, ptr %ref.tmp, i64 48
  %4 = load i64, ptr %size_.i6.i, align 8, !tbaa !63
  %tobool.not.i7.i = icmp eq i64 %4, 0
  br i1 %tobool.not.i7.i, label %_ZN5boost7numeric5ublas17compressed_matrixIdNS1_15basic_row_majorImlEELm0ENS1_15unbounded_arrayImSaImEEENS5_IdSaIdEEEED2Ev.exit, label %if.then.i8.i

if.then.i8.i:                                     ; preds = %_ZN5boost7numeric5ublas15unbounded_arrayImSaImEED2Ev.exit.i
  %data_.i9.i = getelementptr inbounds nuw i8, ptr %ref.tmp, i64 56
  %5 = load ptr, ptr %data_.i9.i, align 8, !tbaa !66
  %mul.i.i10.i = shl i64 %4, 3
  call void @_ZdlPvm(ptr noundef %5, i64 noundef %mul.i.i10.i) #22
  br label %_ZN5boost7numeric5ublas17compressed_matrixIdNS1_15basic_row_majorImlEELm0ENS1_15unbounded_arrayImSaImEEENS5_IdSaIdEEEED2Ev.exit

_ZN5boost7numeric5ublas17compressed_matrixIdNS1_15basic_row_majorImlEELm0ENS1_15unbounded_arrayImSaImEEENS5_IdSaIdEEEED2Ev.exit: ; preds = %_ZN5boost7numeric5ublas15unbounded_arrayImSaImEED2Ev.exit.i, %if.then.i8.i
  call void @llvm.lifetime.end.p0(i64 112, ptr nonnull %ref.tmp) #20
  ret void

lpad:                                             ; preds = %entry
  %6 = landingpad { ptr, i32 }
          cleanup
  call void @llvm.lifetime.end.p0(i64 1, ptr nonnull %ref.tmp2) #20
  call void @_ZN5boost7numeric5ublas17compressed_matrixIdNS1_15basic_row_majorImlEELm0ENS1_15unbounded_arrayImSaImEEENS5_IdSaIdEEEED2Ev(ptr noundef nonnull align 8 dereferenceable(112) %ref.tmp) #20
  call void @llvm.lifetime.end.p0(i64 112, ptr nonnull %ref.tmp) #20
  resume { ptr, i32 } %6
}